target datalayout = "e-m:e-p270:32:32-p271:32:32-p272:64:64-i64:64-i128:128-f80:128-n8:16:32:64-S128"
target triple = "x86_64-pc-linux-gnu"

; Function Attrs: alwaysinline nounwind willreturn memory(none) uwtable
define internal zeroext i16 @av_bswap16(i16 noundef zeroext %0) #4 {
  %2 = alloca i16, align 2
  store i16 %0, ptr %2, align 2, !tbaa !44
  %3 = load i16, ptr %2, align 2, !tbaa !44
  %4 = zext i16 %3 to i32
  %5 = ashr i32 %4, 8
  %6 = load i16, ptr %2, align 2, !tbaa !44
  %7 = zext i16 %6 to i32
  %8 = shl i32 %7, 8
  %9 = or i32 %5, %8
  %10 = trunc i32 %9 to i16
  store i16 %10, ptr %2, align 2, !tbaa !44
  %11 = load i16, ptr %2, align 2, !tbaa !44
  ret i16 %11
}

; Function Attrs: alwaysinline nounwind uwtable
define internal void @rgb16_32ToY_c_template(ptr noundef %0, ptr noundef %1, i32 noundef %2, i32 noundef %3, i32 noundef %4, i32 noundef %5, i32 noundef %6, i32 noundef %7, i32 noundef %8, i32 noundef %9, i32 noundef %10, i32 noundef %11, i32 noundef %12, i32 noundef %13, i32 noundef %14, ptr noundef %15, i32 noundef %16) #3 {
  %18 = alloca ptr, align 8
  %19 = alloca ptr, align 8
  %20 = alloca i32, align 4
  %21 = alloca i32, align 4
  %22 = alloca i32, align 4
  %23 = alloca i32, align 4
  %24 = alloca i32, align 4
  %25 = alloca i32, align 4
  %26 = alloca i32, align 4
  %27 = alloca i32, align 4
  %28 = alloca i32, align 4
  %29 = alloca i32, align 4
  %30 = alloca i32, align 4
  %31 = alloca i32, align 4
  %32 = alloca i32, align 4
  %33 = alloca ptr, align 8
  %34 = alloca i32, align 4
  %35 = alloca i32, align 4
  %36 = alloca i32, align 4
  %37 = alloca i32, align 4
  %38 = alloca i32, align 4
  %39 = alloca i32, align 4
  %40 = alloca i32, align 4
  %41 = alloca i32, align 4
  %42 = alloca i32, align 4
  %43 = alloca i32, align 4
  store ptr %0, ptr %18, align 8, !tbaa !43
  store ptr %1, ptr %19, align 8, !tbaa !34
  store i32 %2, ptr %20, align 4, !tbaa !30
  store i32 %3, ptr %21, align 4, !tbaa !30
  store i32 %4, ptr %22, align 4, !tbaa !30
  store i32 %5, ptr %23, align 4, !tbaa !30
  store i32 %6, ptr %24, align 4, !tbaa !30
  store i32 %7, ptr %25, align 4, !tbaa !30
  store i32 %8, ptr %26, align 4, !tbaa !30
  store i32 %9, ptr %27, align 4, !tbaa !30
  store i32 %10, ptr %28, align 4, !tbaa !30
  store i32 %11, ptr %29, align 4, !tbaa !30
  store i32 %12, ptr %30, align 4, !tbaa !30
  store i32 %13, ptr %31, align 4, !tbaa !30
  store i32 %14, ptr %32, align 4, !tbaa !30
  store ptr %15, ptr %33, align 8, !tbaa !35
  store i32 %16, ptr %34, align 4, !tbaa !30
  call void @llvm.lifetime.start.p0(i64 4, ptr %35) #9
  %44 = load ptr, ptr %33, align 8, !tbaa !35
  %45 = getelementptr inbounds i32, ptr %44, i64 0
  %46 = load i32, ptr %45, align 4, !tbaa !30
  %47 = load i32, ptr %29, align 4, !tbaa !30
  %48 = shl i32 %46, %47
  store i32 %48, ptr %35, align 4, !tbaa !30
  call void @llvm.lifetime.start.p0(i64 4, ptr %36) #9
  %49 = load ptr, ptr %33, align 8, !tbaa !35
  %50 = getelementptr inbounds i32, ptr %49, i64 1
  %51 = load i32, ptr %50, align 4, !tbaa !30
  %52 = load i32, ptr %30, align 4, !tbaa !30
  %53 = shl i32 %51, %52
  store i32 %53, ptr %36, align 4, !tbaa !30
  call void @llvm.lifetime.start.p0(i64 4, ptr %37) #9
  %54 = load ptr, ptr %33, align 8, !tbaa !35
  %55 = getelementptr inbounds i32, ptr %54, i64 2
  %56 = load i32, ptr %55, align 4, !tbaa !30
  %57 = load i32, ptr %31, align 4, !tbaa !30
  %58 = shl i32 %56, %57
  store i32 %58, ptr %37, align 4, !tbaa !30
  call void @llvm.lifetime.start.p0(i64 4, ptr %38) #9
  %59 = load i32, ptr %32, align 4, !tbaa !30
  %60 = sub nsw i32 %59, 1
  %61 = shl i32 32, %60
  %62 = load i32, ptr %32, align 4, !tbaa !30
  %63 = sub nsw i32 %62, 7
  %64 = shl i32 1, %63
  %65 = add nsw i32 %61, %64
  store i32 %65, ptr %38, align 4, !tbaa !30
  call void @llvm.lifetime.start.p0(i64 4, ptr %39) #9
  store i32 0, ptr %39, align 4, !tbaa !30
  br label %66

66:                                               ; preds = %166, %17
  %67 = load i32, ptr %39, align 4, !tbaa !30
  %68 = load i32, ptr %20, align 4, !tbaa !30
  %69 = icmp slt i32 %67, %68
  br i1 %69, label %70, label %169

70:                                               ; preds = %66
  call void @llvm.lifetime.start.p0(i64 4, ptr %40) #9
  %71 = load i32, ptr %21, align 4, !tbaa !30
  %72 = icmp eq i32 %71, 26
  br i1 %72, label %82, label %73

73:                                               ; preds = %70
  %74 = load i32, ptr %21, align 4, !tbaa !30
  %75 = icmp eq i32 %74, 28
  br i1 %75, label %82, label %76

76:                                               ; preds = %73
  %77 = load i32, ptr %21, align 4, !tbaa !30
  %78 = icmp eq i32 %77, 25
  br i1 %78, label %82, label %79

79:                                               ; preds = %76
  %80 = load i32, ptr %21, align 4, !tbaa !30
  %81 = icmp eq i32 %80, 27
  br i1 %81, label %82, label %89

82:                                               ; preds = %79, %76, %73, %70
  %83 = load ptr, ptr %19, align 8, !tbaa !34
  %84 = load i32, ptr %39, align 4, !tbaa !30
  %85 = mul nsw i32 %84, 4
  %86 = sext i32 %85 to i64
  %87 = getelementptr inbounds i8, ptr %83, i64 %86
  %88 = load i32, ptr %87, align 4, !tbaa !36
  br label %126

89:                                               ; preds = %79
  %90 = load i32, ptr %21, align 4, !tbaa !30
  %91 = icmp eq i32 %90, 193
  br i1 %91, label %95, label %92

92:                                               ; preds = %89
  %93 = load i32, ptr %21, align 4, !tbaa !30
  %94 = icmp eq i32 %93, 195
  br i1 %94, label %95, label %102

95:                                               ; preds = %92, %89
  %96 = load ptr, ptr %19, align 8, !tbaa !34
  %97 = load i32, ptr %39, align 4, !tbaa !30
  %98 = mul nsw i32 %97, 4
  %99 = sext i32 %98 to i64
  %100 = getelementptr inbounds i8, ptr %96, i64 %99
  %101 = load i32, ptr %100, align 1, !tbaa !36
  br label %124

102:                                              ; preds = %92
  %103 = load i32, ptr %34, align 4, !tbaa !30
  %104 = icmp ne i32 %103, 0
  br i1 %104, label %105, label %114

105:                                              ; preds = %102
  %106 = load ptr, ptr %19, align 8, !tbaa !34
  %107 = load i32, ptr %39, align 4, !tbaa !30
  %108 = mul nsw i32 %107, 2
  %109 = sext i32 %108 to i64
  %110 = getelementptr inbounds i8, ptr %106, i64 %109
  %111 = load i16, ptr %110, align 1, !tbaa !36
  %112 = call zeroext i16 @av_bswap16(i16 noundef zeroext %111) #10
  %113 = zext i16 %112 to i32
  br label %122

114:                                              ; preds = %102
  %115 = load ptr, ptr %19, align 8, !tbaa !34
  %116 = load i32, ptr %39, align 4, !tbaa !30
  %117 = mul nsw i32 %116, 2
  %118 = sext i32 %117 to i64
  %119 = getelementptr inbounds i8, ptr %115, i64 %118
  %120 = load i16, ptr %119, align 1, !tbaa !36
  %121 = zext i16 %120 to i32
  br label %122

122:                                              ; preds = %114, %105
  %123 = phi i32 [ %113, %105 ], [ %121, %114 ]
  br label %124

124:                                              ; preds = %122, %95
  %125 = phi i32 [ %101, %95 ], [ %123, %122 ]
  br label %126

126:                                              ; preds = %124, %82
  %127 = phi i32 [ %88, %82 ], [ %125, %124 ]
  %128 = load i32, ptr %25, align 4, !tbaa !30
  %129 = lshr i32 %127, %128
  store i32 %129, ptr %40, align 4, !tbaa !30
  call void @llvm.lifetime.start.p0(i64 4, ptr %41) #9
  %130 = load i32, ptr %40, align 4, !tbaa !30
  %131 = load i32, ptr %28, align 4, !tbaa !30
  %132 = and i32 %130, %131
  %133 = load i32, ptr %24, align 4, !tbaa !30
  %134 = ashr i32 %132, %133
  store i32 %134, ptr %41, align 4, !tbaa !30
  call void @llvm.lifetime.start.p0(i64 4, ptr %42) #9
  %135 = load i32, ptr %40, align 4, !tbaa !30
  %136 = load i32, ptr %27, align 4, !tbaa !30
  %137 = and i32 %135, %136
  %138 = load i32, ptr %23, align 4, !tbaa !30
  %139 = ashr i32 %137, %138
  store i32 %139, ptr %42, align 4, !tbaa !30
  call void @llvm.lifetime.start.p0(i64 4, ptr %43) #9
  %140 = load i32, ptr %40, align 4, !tbaa !30
  %141 = load i32, ptr %26, align 4, !tbaa !30
  %142 = and i32 %140, %141
  %143 = load i32, ptr %22, align 4, !tbaa !30
  %144 = ashr i32 %142, %143
  store i32 %144, ptr %43, align 4, !tbaa !30
  %145 = load i32, ptr %35, align 4, !tbaa !30
  %146 = load i32, ptr %43, align 4, !tbaa !30
  %147 = mul nsw i32 %145, %146
  %148 = load i32, ptr %36, align 4, !tbaa !30
  %149 = load i32, ptr %42, align 4, !tbaa !30
  %150 = mul nsw i32 %148, %149
  %151 = add nsw i32 %147, %150
  %152 = load i32, ptr %37, align 4, !tbaa !30
  %153 = load i32, ptr %41, align 4, !tbaa !30
  %154 = mul nsw i32 %152, %153
  %155 = add nsw i32 %151, %154
  %156 = load i32, ptr %38, align 4, !tbaa !30
  %157 = add i32 %155, %156
  %158 = load i32, ptr %32, align 4, !tbaa !30
  %159 = sub nsw i32 %158, 6
  %160 = lshr i32 %157, %159
  %161 = trunc i32 %160 to i16
  %162 = load ptr, ptr %18, align 8, !tbaa !43
  %163 = load i32, ptr %39, align 4, !tbaa !30
  %164 = sext i32 %163 to i64
  %165 = getelementptr inbounds i16, ptr %162, i64 %164
  store i16 %161, ptr %165, align 2, !tbaa !44
  call void @llvm.lifetime.end.p0(i64 4, ptr %43) #9
  call void @llvm.lifetime.end.p0(i64 4, ptr %42) #9
  call void @llvm.lifetime.end.p0(i64 4, ptr %41) #9
  call void @llvm.lifetime.end.p0(i64 4, ptr %40) #9
  br label %166

166:                                              ; preds = %126
  %167 = load i32, ptr %39, align 4, !tbaa !30
  %168 = add nsw i32 %167, 1
  store i32 %168, ptr %39, align 4, !tbaa !30
  br label %66, !llvm.loop !159

169:                                              ; preds = %66
  call void @llvm.lifetime.end.p0(i64 4, ptr %39) #9
  call void @llvm.lifetime.end.p0(i64 4, ptr %38) #9
  call void @llvm.lifetime.end.p0(i64 4, ptr %37) #9
  call void @llvm.lifetime.end.p0(i64 4, ptr %36) #9
  call void @llvm.lifetime.end.p0(i64 4, ptr %35) #9
  ret void
}

; Function Attrs: nounwind uwtable
define internal void @rgb32ToY_c(ptr noundef %0, ptr noundef %1, ptr noundef %2, ptr noundef %3, i32 noundef %4, ptr noundef %5, ptr noundef %6) #2 {
  %8 = alloca ptr, align 8
  %9 = alloca ptr, align 8
  %10 = alloca ptr, align 8
  %11 = alloca ptr, align 8
  %12 = alloca i32, align 4
  %13 = alloca ptr, align 8
  %14 = alloca ptr, align 8
  store ptr %0, ptr %8, align 8, !tbaa !34
  store ptr %1, ptr %9, align 8, !tbaa !34
  store ptr %2, ptr %10, align 8, !tbaa !34
  store ptr %3, ptr %11, align 8, !tbaa !34
  store i32 %4, ptr %12, align 4, !tbaa !30
  store ptr %5, ptr %13, align 8, !tbaa !35
  store ptr %6, ptr %14, align 8, !tbaa !31
  %15 = load ptr, ptr %8, align 8, !tbaa !34
  %16 = load ptr, ptr %9, align 8, !tbaa !34
  %17 = load i32, ptr %12, align 4, !tbaa !30
  %18 = load ptr, ptr %13, align 8, !tbaa !35
  call void @rgb16_32ToY_c_template(ptr noundef %15, ptr noundef %16, i32 noundef %17, i32 noundef 28, i32 noundef 0, i32 noundef 0, i32 noundef 16, i32 noundef 0, i32 noundef 255, i32 noundef 65280, i32 noundef 16711680, i32 noundef 8, i32 noundef 0, i32 noundef 8, i32 noundef 23, ptr noundef %18, i32 noundef 0)
  ret void
}