; Function Attrs: nofree norecurse nosync nounwind memory(argmem: readwrite) uwtable
define internal void @rgb32ToY_c(ptr noundef writeonly captures(none) %0, ptr noundef readonly captures(none) %1, ptr readnone captures(none) %2, ptr readnone captures(none) %3, i32 noundef %4, ptr noundef readonly captures(none) %5, ptr readnone captures(none) %6) #1 {
  %8 = load i32, ptr %5, align 4, !tbaa !42
  %9 = getelementptr inbounds nuw i8, ptr %5, i64 4
  %10 = load i32, ptr %9, align 4, !tbaa !42
  %11 = getelementptr inbounds nuw i8, ptr %5, i64 8
  %12 = load i32, ptr %11, align 4, !tbaa !42
  %factor.op.mul = shl i32 %8, 8
  %factor.op.mul3 = shl i32 %12, 8
  %13 = icmp sgt i32 %4, 0
  br i1 %13, label %.lr.ph.preheader, label %rgb16_32ToY_c_template.exit

.lr.ph.preheader:                                 ; preds = %7
  %wide.trip.count = zext nneg i32 %4 to i64
  br label %.lr.ph

.lr.ph:                                           ; preds = %.lr.ph.preheader, %.lr.ph
  %indvars.iv = phi i64 [ 0, %.lr.ph.preheader ], [ %indvars.iv.next, %.lr.ph ]
  %14 = shl nsw i64 %indvars.iv, 2
  %15 = getelementptr inbounds nuw i8, ptr %1, i64 %14
  %16 = load i32, ptr %15, align 4, !tbaa !34
  %17 = lshr i32 %16, 16
  %18 = and i32 %17, 255
  %19 = and i32 %16, 65280
  %20 = and i32 %16, 255
  %.reass = mul i32 %20, %factor.op.mul
  %21 = mul nsw i32 %19, %10
  %.reass4 = mul i32 %18, %factor.op.mul3
  %reass.add = add i32 %.reass4, %.reass
  %22 = add i32 %21, 134283264
  %23 = add i32 %22, %reass.add
  %24 = lshr i32 %23, 17
  %25 = trunc nuw nsw i32 %24 to i16
  %26 = getelementptr inbounds nuw i16, ptr %0, i64 %indvars.iv
  store i16 %25, ptr %26, align 2, !tbaa !43
  %indvars.iv.next = add nuw nsw i64 %indvars.iv, 1
  %exitcond.not = icmp eq i64 %indvars.iv.next, %wide.trip.count
  br i1 %exitcond.not, label %rgb16_32ToY_c_template.exit, label %.lr.ph, !llvm.loop !116

rgb16_32ToY_c_template.exit:                      ; preds = %.lr.ph, %7
  ret void
}